target datalayout = "e-m:e-p270:32:32-p271:32:32-p272:64:64-i64:64-i128:128-f80:128-n8:16:32:64-S128"
target triple = "x86_64-pc-linux-gnu"

%struct.anon = type { double, double, double, double, double, double, [2 x double], double }
%struct._generic_N_Vector = type { ptr, ptr, ptr }
%struct._N_VectorContent_Serial = type { i64, i32, ptr }

; Function Attrs: nounwind uwtable
define internal void @force(ptr noundef %0, ptr noundef %1, ptr noundef %2) #0 {
  %4 = alloca ptr, align 8
  %5 = alloca ptr, align 8
  %6 = alloca ptr, align 8
  %7 = alloca double, align 8
  %8 = alloca double, align 8
  %9 = alloca double, align 8
  %10 = alloca double, align 8
  %11 = alloca double, align 8
  %12 = alloca double, align 8
  %13 = alloca double, align 8
  %14 = alloca double, align 8
  %15 = alloca double, align 8
  %16 = alloca double, align 8
  %17 = alloca double, align 8
  %18 = alloca double, align 8
  %19 = alloca double, align 8
  %20 = alloca double, align 8
  %21 = alloca double, align 8
  %22 = alloca double, align 8
  %23 = alloca double, align 8
  %24 = alloca double, align 8
  %25 = alloca double, align 8
  %26 = alloca double, align 8
  %27 = alloca double, align 8
  %28 = alloca double, align 8
  store ptr %0, ptr %4, align 8, !tbaa !15
  store ptr %1, ptr %5, align 8, !tbaa !43
  store ptr %2, ptr %6, align 8, !tbaa !19
  call void @llvm.lifetime.start.p0(i64 8, ptr %7) #6
  call void @llvm.lifetime.start.p0(i64 8, ptr %8) #6
  call void @llvm.lifetime.start.p0(i64 8, ptr %9) #6
  call void @llvm.lifetime.start.p0(i64 8, ptr %10) #6
  call void @llvm.lifetime.start.p0(i64 8, ptr %11) #6
  call void @llvm.lifetime.start.p0(i64 8, ptr %12) #6
  call void @llvm.lifetime.start.p0(i64 8, ptr %13) #6
  call void @llvm.lifetime.start.p0(i64 8, ptr %14) #6
  call void @llvm.lifetime.start.p0(i64 8, ptr %15) #6
  call void @llvm.lifetime.start.p0(i64 8, ptr %16) #6
  call void @llvm.lifetime.start.p0(i64 8, ptr %17) #6
  call void @llvm.lifetime.start.p0(i64 8, ptr %18) #6
  call void @llvm.lifetime.start.p0(i64 8, ptr %19) #6
  call void @llvm.lifetime.start.p0(i64 8, ptr %20) #6
  call void @llvm.lifetime.start.p0(i64 8, ptr %21) #6
  call void @llvm.lifetime.start.p0(i64 8, ptr %22) #6
  call void @llvm.lifetime.start.p0(i64 8, ptr %23) #6
  call void @llvm.lifetime.start.p0(i64 8, ptr %24) #6
  call void @llvm.lifetime.start.p0(i64 8, ptr %25) #6
  call void @llvm.lifetime.start.p0(i64 8, ptr %26) #6
  call void @llvm.lifetime.start.p0(i64 8, ptr %27) #6
  call void @llvm.lifetime.start.p0(i64 8, ptr %28) #6
  %29 = load ptr, ptr %6, align 8, !tbaa !19
  %30 = getelementptr inbounds nuw %struct.anon, ptr %29, i32 0, i32 0
  %31 = load double, ptr %30, align 8, !tbaa !20
  store double %31, ptr %7, align 8, !tbaa !27
  %32 = load ptr, ptr %6, align 8, !tbaa !19
  %33 = getelementptr inbounds nuw %struct.anon, ptr %32, i32 0, i32 6
  %34 = getelementptr inbounds [2 x double], ptr %33, i64 0, i64 0
  %35 = load double, ptr %34, align 8, !tbaa !27
  store double %35, ptr %8, align 8, !tbaa !27
  %36 = load ptr, ptr %6, align 8, !tbaa !19
  %37 = getelementptr inbounds nuw %struct.anon, ptr %36, i32 0, i32 6
  %38 = getelementptr inbounds [2 x double], ptr %37, i64 0, i64 1
  %39 = load double, ptr %38, align 8, !tbaa !27
  store double %39, ptr %9, align 8, !tbaa !27
  %40 = load ptr, ptr %6, align 8, !tbaa !19
  %41 = getelementptr inbounds nuw %struct.anon, ptr %40, i32 0, i32 5
  %42 = load double, ptr %41, align 8, !tbaa !28
  store double %42, ptr %10, align 8, !tbaa !27
  %43 = load ptr, ptr %6, align 8, !tbaa !19
  %44 = getelementptr inbounds nuw %struct.anon, ptr %43, i32 0, i32 7
  %45 = load double, ptr %44, align 8, !tbaa !29
  store double %45, ptr %11, align 8, !tbaa !27
  %46 = load ptr, ptr %4, align 8, !tbaa !15
  %47 = getelementptr inbounds nuw %struct._generic_N_Vector, ptr %46, i32 0, i32 0
  %48 = load ptr, ptr %47, align 8, !tbaa !30
  %49 = getelementptr inbounds nuw %struct._N_VectorContent_Serial, ptr %48, i32 0, i32 2
  %50 = load ptr, ptr %49, align 8, !tbaa !33
  %51 = getelementptr inbounds double, ptr %50, i64 0
  %52 = load double, ptr %51, align 8, !tbaa !27
  store double %52, ptr %12, align 8, !tbaa !27
  %53 = load ptr, ptr %4, align 8, !tbaa !15
  %54 = getelementptr inbounds nuw %struct._generic_N_Vector, ptr %53, i32 0, i32 0
  %55 = load ptr, ptr %54, align 8, !tbaa !30
  %56 = getelementptr inbounds nuw %struct._N_VectorContent_Serial, ptr %55, i32 0, i32 2
  %57 = load ptr, ptr %56, align 8, !tbaa !33
  %58 = getelementptr inbounds double, ptr %57, i64 1
  %59 = load double, ptr %58, align 8, !tbaa !27
  store double %59, ptr %13, align 8, !tbaa !27
  %60 = load ptr, ptr %4, align 8, !tbaa !15
  %61 = getelementptr inbounds nuw %struct._generic_N_Vector, ptr %60, i32 0, i32 0
  %62 = load ptr, ptr %61, align 8, !tbaa !30
  %63 = getelementptr inbounds nuw %struct._N_VectorContent_Serial, ptr %62, i32 0, i32 2
  %64 = load ptr, ptr %63, align 8, !tbaa !33
  %65 = getelementptr inbounds double, ptr %64, i64 2
  %66 = load double, ptr %65, align 8, !tbaa !27
  store double %66, ptr %14, align 8, !tbaa !27
  %67 = load ptr, ptr %4, align 8, !tbaa !15
  %68 = getelementptr inbounds nuw %struct._generic_N_Vector, ptr %67, i32 0, i32 0
  %69 = load ptr, ptr %68, align 8, !tbaa !30
  %70 = getelementptr inbounds nuw %struct._N_VectorContent_Serial, ptr %69, i32 0, i32 2
  %71 = load ptr, ptr %70, align 8, !tbaa !33
  %72 = getelementptr inbounds double, ptr %71, i64 3
  %73 = load double, ptr %72, align 8, !tbaa !27
  store double %73, ptr %15, align 8, !tbaa !27
  %74 = load ptr, ptr %4, align 8, !tbaa !15
  %75 = getelementptr inbounds nuw %struct._generic_N_Vector, ptr %74, i32 0, i32 0
  %76 = load ptr, ptr %75, align 8, !tbaa !30
  %77 = getelementptr inbounds nuw %struct._N_VectorContent_Serial, ptr %76, i32 0, i32 2
  %78 = load ptr, ptr %77, align 8, !tbaa !33
  %79 = getelementptr inbounds double, ptr %78, i64 4
  %80 = load double, ptr %79, align 8, !tbaa !27
  store double %80, ptr %16, align 8, !tbaa !27
  %81 = load ptr, ptr %4, align 8, !tbaa !15
  %82 = getelementptr inbounds nuw %struct._generic_N_Vector, ptr %81, i32 0, i32 0
  %83 = load ptr, ptr %82, align 8, !tbaa !30
  %84 = getelementptr inbounds nuw %struct._N_VectorContent_Serial, ptr %83, i32 0, i32 2
  %85 = load ptr, ptr %84, align 8, !tbaa !33
  %86 = getelementptr inbounds double, ptr %85, i64 5
  %87 = load double, ptr %86, align 8, !tbaa !27
  store double %87, ptr %17, align 8, !tbaa !27
  %88 = load double, ptr %12, align 8, !tbaa !27
  %89 = call double @sin(double noundef %88) #6, !tbaa !11
  store double %89, ptr %18, align 8, !tbaa !27
  %90 = load double, ptr %12, align 8, !tbaa !27
  %91 = call double @cos(double noundef %90) #6, !tbaa !11
  store double %91, ptr %19, align 8, !tbaa !27
  %92 = load double, ptr %14, align 8, !tbaa !27
  %93 = call double @sin(double noundef %92) #6, !tbaa !11
  store double %93, ptr %20, align 8, !tbaa !27
  %94 = load double, ptr %14, align 8, !tbaa !27
  %95 = call double @cos(double noundef %94) #6, !tbaa !11
  store double %95, ptr %21, align 8, !tbaa !27
  %96 = load double, ptr %20, align 8, !tbaa !27
  %97 = load double, ptr %19, align 8, !tbaa !27
  %98 = load double, ptr %21, align 8, !tbaa !27
  %99 = load double, ptr %18, align 8, !tbaa !27
  %100 = fmul double %98, %99
  %101 = fneg double %100
  %102 = call double @llvm.fmuladd.f64(double %96, double %97, double %101)
  store double %102, ptr %22, align 8, !tbaa !27
  %103 = load double, ptr %21, align 8, !tbaa !27
  %104 = load double, ptr %19, align 8, !tbaa !27
  %105 = load double, ptr %20, align 8, !tbaa !27
  %106 = load double, ptr %18, align 8, !tbaa !27
  %107 = fmul double %105, %106
  %108 = call double @llvm.fmuladd.f64(double %103, double %104, double %107)
  store double %108, ptr %23, align 8, !tbaa !27
  %109 = load double, ptr %13, align 8, !tbaa !27
  %110 = load double, ptr %13, align 8, !tbaa !27
  %111 = load double, ptr %13, align 8, !tbaa !27
  %112 = load double, ptr %21, align 8, !tbaa !27
  %113 = load double, ptr %7, align 8, !tbaa !27
  %114 = load double, ptr %19, align 8, !tbaa !27
  %115 = call double @llvm.fmuladd.f64(double %113, double %114, double %112)
  %116 = fmul double %111, %115
  %117 = fneg double %116
  %118 = call double @llvm.fmuladd.f64(double %109, double %110, double %117)
  %119 = load double, ptr %7, align 8, !tbaa !27
  %120 = load double, ptr %7, align 8, !tbaa !27
  %121 = call double @llvm.fmuladd.f64(double %119, double %120, double 1.000000e+00)
  %122 = fdiv double %121, 4.000000e+00
  %123 = fadd double %118, %122
  %124 = load double, ptr %7, align 8, !tbaa !27
  %125 = load double, ptr %23, align 8, !tbaa !27
  %126 = fmul double %124, %125
  %127 = fdiv double %126, 2.000000e+00
  %128 = fadd double %123, %127
  store double %128, ptr %24, align 8, !tbaa !27
  %129 = load double, ptr %24, align 8, !tbaa !27
  %130 = call double @sqrt(double noundef %129) #6, !tbaa !11
  store double %130, ptr %25, align 8, !tbaa !27
  %131 = load double, ptr %13, align 8, !tbaa !27
  %132 = fmul double 2.000000e+00, %131
  %133 = load double, ptr %16, align 8, !tbaa !27
  %134 = load double, ptr %16, align 8, !tbaa !27
  %135 = load double, ptr %21, align 8, !tbaa !27
  %136 = load double, ptr %7, align 8, !tbaa !27
  %137 = load double, ptr %19, align 8, !tbaa !27
  %138 = call double @llvm.fmuladd.f64(double %136, double %137, double %135)
  %139 = fmul double %134, %138
  %140 = fneg double %139
  %141 = call double @llvm.fmuladd.f64(double %132, double %133, double %140)
  %142 = load double, ptr %13, align 8, !tbaa !27
  %143 = load double, ptr %20, align 8, !tbaa !27
  %144 = load double, ptr %17, align 8, !tbaa !27
  %145 = load double, ptr %7, align 8, !tbaa !27
  %146 = load double, ptr %18, align 8, !tbaa !27
  %147 = fmul double %145, %146
  %148 = load double, ptr %15, align 8, !tbaa !27
  %149 = fmul double %147, %148
  %150 = call double @llvm.fmuladd.f64(double %143, double %144, double %149)
  %151 = call double @llvm.fmuladd.f64(double %142, double %150, double %141)
  %152 = load double, ptr %7, align 8, !tbaa !27
  %153 = load double, ptr %22, align 8, !tbaa !27
  %154 = fmul double %152, %153
  %155 = load double, ptr %17, align 8, !tbaa !27
  %156 = load double, ptr %15, align 8, !tbaa !27
  %157 = fsub double %155, %156
  %158 = fmul double %154, %157
  %159 = fdiv double %158, 2.000000e+00
  %160 = fsub double %151, %159
  store double %160, ptr %26, align 8, !tbaa !27
  %161 = load double, ptr %25, align 8, !tbaa !27
  %162 = fmul double 2.000000e+00, %161
  %163 = load double, ptr %26, align 8, !tbaa !27
  %164 = fdiv double %163, %162
  store double %164, ptr %26, align 8, !tbaa !27
  %165 = load double, ptr %8, align 8, !tbaa !27
  %166 = load double, ptr %25, align 8, !tbaa !27
  %167 = load double, ptr %10, align 8, !tbaa !27
  %168 = fsub double %166, %167
  %169 = load double, ptr %9, align 8, !tbaa !27
  %170 = load double, ptr %26, align 8, !tbaa !27
  %171 = fmul double %169, %170
  %172 = call double @llvm.fmuladd.f64(double %165, double %168, double %171)
  store double %172, ptr %27, align 8, !tbaa !27
  %173 = load double, ptr %27, align 8, !tbaa !27
  %174 = load double, ptr %25, align 8, !tbaa !27
  %175 = fdiv double %173, %174
  store double %175, ptr %28, align 8, !tbaa !27
  %176 = load double, ptr %28, align 8, !tbaa !27
  %177 = fneg double %176
  %178 = load double, ptr %7, align 8, !tbaa !27
  %179 = fmul double %177, %178
  %180 = load double, ptr %22, align 8, !tbaa !27
  %181 = fdiv double %180, 2.000000e+00
  %182 = load double, ptr %13, align 8, !tbaa !27
  %183 = load double, ptr %18, align 8, !tbaa !27
  %184 = call double @llvm.fmuladd.f64(double %182, double %183, double %181)
  %185 = fmul double %179, %184
  %186 = fdiv double %185, 2.000000e+00
  %187 = load ptr, ptr %5, align 8, !tbaa !43
  %188 = getelementptr inbounds double, ptr %187, i64 0
  store double %186, ptr %188, align 8, !tbaa !27
  %189 = load double, ptr %28, align 8, !tbaa !27
  %190 = load double, ptr %21, align 8, !tbaa !27
  %191 = fdiv double %190, 2.000000e+00
  %192 = load double, ptr %13, align 8, !tbaa !27
  %193 = fsub double %191, %192
  %194 = load double, ptr %7, align 8, !tbaa !27
  %195 = load double, ptr %19, align 8, !tbaa !27
  %196 = fmul double %194, %195
  %197 = fdiv double %196, 2.000000e+00
  %198 = fadd double %193, %197
  %199 = load double, ptr %11, align 8, !tbaa !27
  %200 = call double @llvm.fmuladd.f64(double %189, double %198, double %199)
  %201 = load ptr, ptr %5, align 8, !tbaa !43
  %202 = getelementptr inbounds double, ptr %201, i64 1
  store double %200, ptr %202, align 8, !tbaa !27
  %203 = load double, ptr %28, align 8, !tbaa !27
  %204 = fneg double %203
  %205 = load double, ptr %13, align 8, !tbaa !27
  %206 = load double, ptr %20, align 8, !tbaa !27
  %207 = load double, ptr %7, align 8, !tbaa !27
  %208 = load double, ptr %22, align 8, !tbaa !27
  %209 = fmul double %207, %208
  %210 = fdiv double %209, 2.000000e+00
  %211 = fneg double %210
  %212 = call double @llvm.fmuladd.f64(double %205, double %206, double %211)
  %213 = fmul double %204, %212
  %214 = fdiv double %213, 2.000000e+00
  %215 = load double, ptr %11, align 8, !tbaa !27
  %216 = load double, ptr %20, align 8, !tbaa !27
  %217 = fneg double %215
  %218 = call double @llvm.fmuladd.f64(double %217, double %216, double %214)
  %219 = load ptr, ptr %5, align 8, !tbaa !43
  %220 = getelementptr inbounds double, ptr %219, i64 2
  store double %218, ptr %220, align 8, !tbaa !27
  call void @llvm.lifetime.end.p0(i64 8, ptr %28) #6
  call void @llvm.lifetime.end.p0(i64 8, ptr %27) #6
  call void @llvm.lifetime.end.p0(i64 8, ptr %26) #6
  call void @llvm.lifetime.end.p0(i64 8, ptr %25) #6
  call void @llvm.lifetime.end.p0(i64 8, ptr %24) #6
  call void @llvm.lifetime.end.p0(i64 8, ptr %23) #6
  call void @llvm.lifetime.end.p0(i64 8, ptr %22) #6
  call void @llvm.lifetime.end.p0(i64 8, ptr %21) #6
  call void @llvm.lifetime.end.p0(i64 8, ptr %20) #6
  call void @llvm.lifetime.end.p0(i64 8, ptr %19) #6
  call void @llvm.lifetime.end.p0(i64 8, ptr %18) #6
  call void @llvm.lifetime.end.p0(i64 8, ptr %17) #6
  call void @llvm.lifetime.end.p0(i64 8, ptr %16) #6
  call void @llvm.lifetime.end.p0(i64 8, ptr %15) #6
  call void @llvm.lifetime.end.p0(i64 8, ptr %14) #6
  call void @llvm.lifetime.end.p0(i64 8, ptr %13) #6
  call void @llvm.lifetime.end.p0(i64 8, ptr %12) #6
  call void @llvm.lifetime.end.p0(i64 8, ptr %11) #6
  call void @llvm.lifetime.end.p0(i64 8, ptr %10) #6
  call void @llvm.lifetime.end.p0(i64 8, ptr %9) #6
  call void @llvm.lifetime.end.p0(i64 8, ptr %8) #6
  call void @llvm.lifetime.end.p0(i64 8, ptr %7) #6
  ret void
}

; Function Attrs: nounwind uwtable
define internal void @setIC(ptr noundef %0, ptr noundef %1, ptr noundef %2) #0 {
  %4 = alloca ptr, align 8
  %5 = alloca ptr, align 8
  %6 = alloca ptr, align 8
  %7 = alloca double, align 8
  %8 = alloca double, align 8
  %9 = alloca double, align 8
  %10 = alloca double, align 8
  %11 = alloca double, align 8
  %12 = alloca double, align 8
  %13 = alloca double, align 8
  %14 = alloca double, align 8
  %15 = alloca [3 x double], align 16
  store ptr %0, ptr %4, align 8, !tbaa !15
  store ptr %1, ptr %5, align 8, !tbaa !15
  store ptr %2, ptr %6, align 8, !tbaa !19
  call void @llvm.lifetime.start.p0(i64 8, ptr %7) #6
  call void @llvm.lifetime.start.p0(i64 8, ptr %8) #6
  call void @llvm.lifetime.start.p0(i64 8, ptr %9) #6
  call void @llvm.lifetime.start.p0(i64 8, ptr %10) #6
  call void @llvm.lifetime.start.p0(i64 8, ptr %11) #6
  call void @llvm.lifetime.start.p0(i64 8, ptr %12) #6
  call void @llvm.lifetime.start.p0(i64 8, ptr %13) #6
  call void @llvm.lifetime.start.p0(i64 8, ptr %14) #6
  call void @llvm.lifetime.start.p0(i64 24, ptr %15) #6
  %16 = load ptr, ptr %4, align 8, !tbaa !15
  call void @N_VConst(double noundef 0.000000e+00, ptr noundef %16)
  %17 = load ptr, ptr %5, align 8, !tbaa !15
  call void @N_VConst(double noundef 0.000000e+00, ptr noundef %17)
  %18 = call double @atan(double noundef 1.000000e+00) #6, !tbaa !11
  %19 = fmul double 4.000000e+00, %18
  store double %19, ptr %7, align 8, !tbaa !27
  %20 = load ptr, ptr %6, align 8, !tbaa !19
  %21 = getelementptr inbounds nuw %struct.anon, ptr %20, i32 0, i32 0
  %22 = load double, ptr %21, align 8, !tbaa !20
  store double %22, ptr %8, align 8, !tbaa !27
  %23 = load ptr, ptr %6, align 8, !tbaa !19
  %24 = getelementptr inbounds nuw %struct.anon, ptr %23, i32 0, i32 1
  %25 = load double, ptr %24, align 8, !tbaa !23
  store double %25, ptr %9, align 8, !tbaa !27
  %26 = load ptr, ptr %6, align 8, !tbaa !19
  %27 = getelementptr inbounds nuw %struct.anon, ptr %26, i32 0, i32 4
  %28 = load double, ptr %27, align 8, !tbaa !24
  store double %28, ptr %10, align 8, !tbaa !27
  %29 = load ptr, ptr %6, align 8, !tbaa !19
  %30 = getelementptr inbounds nuw %struct.anon, ptr %29, i32 0, i32 2
  %31 = load double, ptr %30, align 8, !tbaa !26
  store double %31, ptr %11, align 8, !tbaa !27
  %32 = load double, ptr %7, align 8, !tbaa !27
  %33 = fdiv double %32, 2.000000e+00
  store double %33, ptr %12, align 8, !tbaa !27
  %34 = load double, ptr %8, align 8, !tbaa !27
  %35 = fneg double %34
  %36 = call double @asin(double noundef %35) #6, !tbaa !11
  store double %36, ptr %13, align 8, !tbaa !27
  %37 = load double, ptr %13, align 8, !tbaa !27
  %38 = call double @cos(double noundef %37) #6, !tbaa !11
  store double %38, ptr %14, align 8, !tbaa !27
  %39 = load double, ptr %12, align 8, !tbaa !27
  %40 = load ptr, ptr %4, align 8, !tbaa !15
  %41 = getelementptr inbounds nuw %struct._generic_N_Vector, ptr %40, i32 0, i32 0
  %42 = load ptr, ptr %41, align 8, !tbaa !30
  %43 = getelementptr inbounds nuw %struct._N_VectorContent_Serial, ptr %42, i32 0, i32 2
  %44 = load ptr, ptr %43, align 8, !tbaa !33
  %45 = getelementptr inbounds double, ptr %44, i64 0
  store double %39, ptr %45, align 8, !tbaa !27
  %46 = load double, ptr %14, align 8, !tbaa !27
  %47 = load ptr, ptr %4, align 8, !tbaa !15
  %48 = getelementptr inbounds nuw %struct._generic_N_Vector, ptr %47, i32 0, i32 0
  %49 = load ptr, ptr %48, align 8, !tbaa !30
  %50 = getelementptr inbounds nuw %struct._N_VectorContent_Serial, ptr %49, i32 0, i32 2
  %51 = load ptr, ptr %50, align 8, !tbaa !33
  %52 = getelementptr inbounds double, ptr %51, i64 1
  store double %46, ptr %52, align 8, !tbaa !27
  %53 = load double, ptr %13, align 8, !tbaa !27
  %54 = load ptr, ptr %4, align 8, !tbaa !15
  %55 = getelementptr inbounds nuw %struct._generic_N_Vector, ptr %54, i32 0, i32 0
  %56 = load ptr, ptr %55, align 8, !tbaa !30
  %57 = getelementptr inbounds nuw %struct._N_VectorContent_Serial, ptr %56, i32 0, i32 2
  %58 = load ptr, ptr %57, align 8, !tbaa !33
  %59 = getelementptr inbounds double, ptr %58, i64 2
  store double %53, ptr %59, align 8, !tbaa !27
  %60 = load ptr, ptr %4, align 8, !tbaa !15
  %61 = getelementptr inbounds [3 x double], ptr %15, i64 0, i64 0
  %62 = load ptr, ptr %6, align 8, !tbaa !19
  call void @force(ptr noundef %60, ptr noundef %61, ptr noundef %62)
  %63 = getelementptr inbounds [3 x double], ptr %15, i64 0, i64 0
  %64 = load double, ptr %63, align 16, !tbaa !27
  %65 = load double, ptr %9, align 8, !tbaa !27
  %66 = fdiv double %64, %65
  %67 = load ptr, ptr %5, align 8, !tbaa !15
  %68 = getelementptr inbounds nuw %struct._generic_N_Vector, ptr %67, i32 0, i32 0
  %69 = load ptr, ptr %68, align 8, !tbaa !30
  %70 = getelementptr inbounds nuw %struct._N_VectorContent_Serial, ptr %69, i32 0, i32 2
  %71 = load ptr, ptr %70, align 8, !tbaa !33
  %72 = getelementptr inbounds double, ptr %71, i64 3
  store double %66, ptr %72, align 8, !tbaa !27
  %73 = getelementptr inbounds [3 x double], ptr %15, i64 0, i64 1
  %74 = load double, ptr %73, align 8, !tbaa !27
  %75 = load double, ptr %10, align 8, !tbaa !27
  %76 = fdiv double %74, %75
  %77 = load ptr, ptr %5, align 8, !tbaa !15
  %78 = getelementptr inbounds nuw %struct._generic_N_Vector, ptr %77, i32 0, i32 0
  %79 = load ptr, ptr %78, align 8, !tbaa !30
  %80 = getelementptr inbounds nuw %struct._N_VectorContent_Serial, ptr %79, i32 0, i32 2
  %81 = load ptr, ptr %80, align 8, !tbaa !33
  %82 = getelementptr inbounds double, ptr %81, i64 4
  store double %76, ptr %82, align 8, !tbaa !27
  %83 = getelementptr inbounds [3 x double], ptr %15, i64 0, i64 2
  %84 = load double, ptr %83, align 16, !tbaa !27
  %85 = load double, ptr %11, align 8, !tbaa !27
  %86 = fdiv double %84, %85
  %87 = load ptr, ptr %5, align 8, !tbaa !15
  %88 = getelementptr inbounds nuw %struct._generic_N_Vector, ptr %87, i32 0, i32 0
  %89 = load ptr, ptr %88, align 8, !tbaa !30
  %90 = getelementptr inbounds nuw %struct._N_VectorContent_Serial, ptr %89, i32 0, i32 2
  %91 = load ptr, ptr %90, align 8, !tbaa !33
  %92 = getelementptr inbounds double, ptr %91, i64 5
  store double %86, ptr %92, align 8, !tbaa !27
  call void @llvm.lifetime.end.p0(i64 24, ptr %15) #6
  call void @llvm.lifetime.end.p0(i64 8, ptr %14) #6
  call void @llvm.lifetime.end.p0(i64 8, ptr %13) #6
  call void @llvm.lifetime.end.p0(i64 8, ptr %12) #6
  call void @llvm.lifetime.end.p0(i64 8, ptr %11) #6
  call void @llvm.lifetime.end.p0(i64 8, ptr %10) #6
  call void @llvm.lifetime.end.p0(i64 8, ptr %9) #6
  call void @llvm.lifetime.end.p0(i64 8, ptr %8) #6
  call void @llvm.lifetime.end.p0(i64 8, ptr %7) #6
  ret void
}